target datalayout = "e-m:e-p270:32:32-p271:32:32-p272:64:64-i64:64-i128:128-f80:128-n8:16:32:64-S128"
target triple = "x86_64-pc-linux-gnu"

%class.ptr_vector = type { %class.vector }
%class.vector = type { ptr }
%class.ast_mark = type { ptr, %class.obj_mark, %class.obj_mark.0 }
%class.obj_mark = type { [8 x i8], %class.bit_vector }
%class.bit_vector = type { i32, i32, ptr }
%class.obj_mark.0 = type { [8 x i8], %class.bit_vector }
%class.reduce_hypotheses = type { ptr, %class.ref_vector, %class.obj_map.31, %class.obj_map.36, %class.obj_hashtable, %class.ast_mark, %class.ptr_vector }
%class.ref_vector = type { %class.ref_vector_core }
%class.ref_vector_core = type { %class.ref_manager_wrapper, %class.ptr_vector.29 }
%class.ref_manager_wrapper = type { ptr }
%class.ptr_vector.29 = type { %class.vector.30 }
%class.vector.30 = type { ptr }
%class.obj_map.31 = type { %class.core_hashtable.32 }
%class.core_hashtable.32 = type <{ ptr, i32, i32, i32, [4 x i8] }>
%class.obj_map.36 = type { %class.core_hashtable.37 }
%class.core_hashtable.37 = type <{ ptr, i32, i32, i32, [4 x i8] }>
%class.obj_hashtable = type { %class.core_hashtable.base.43, [4 x i8] }
%class.core_hashtable.base.43 = type <{ ptr, i32, i32, i32 }>
%class.obj_ref = type { ptr, ptr }

; Function Attrs: mustprogress nounwind uwtable
define linkonce_odr hidden noundef ptr @_ZNK7obj_refI3app11ast_managerE3getEv(ptr noundef nonnull align 8 dereferenceable(16) %0) #5 comdat align 2 {
  %2 = alloca ptr, align 8
  store ptr %0, ptr %2, align 8, !tbaa !48
  %3 = load ptr, ptr %2, align 8
  %4 = getelementptr inbounds nuw %class.obj_ref, ptr %3, i32 0, i32 0
  %5 = load ptr, ptr %4, align 8, !tbaa !223
  ret ptr %5
}

; Function Attrs: mustprogress nounwind uwtable
define linkonce_odr hidden noundef ptr @_ZNK7obj_refI3app11ast_managerEcvPS0_Ev(ptr noundef nonnull align 8 dereferenceable(16) %0) #5 comdat align 2 {
  %2 = alloca ptr, align 8
  store ptr %0, ptr %2, align 8, !tbaa !48
  %3 = load ptr, ptr %2, align 8
  %4 = getelementptr inbounds nuw %class.obj_ref, ptr %3, i32 0, i32 0
  %5 = load ptr, ptr %4, align 8, !tbaa !223
  ret ptr %5
}

; Function Attrs: mustprogress uwtable
define linkonce_odr hidden void @_ZN17reduce_hypothesesclER7obj_refI3app11ast_managerE(ptr noundef nonnull align 8 dereferenceable(160) %0, ptr noundef nonnull align 8 dereferenceable(16) %1) #4 comdat align 2 {
  %3 = alloca ptr, align 8
  %4 = alloca ptr, align 8
  store ptr %0, ptr %3, align 8, !tbaa !52
  store ptr %1, ptr %4, align 8, !tbaa !48
  %5 = load ptr, ptr %3, align 8
  %6 = load ptr, ptr %4, align 8, !tbaa !48
  %7 = call noundef ptr @_ZNK7obj_refI3app11ast_managerEcvPS0_Ev(ptr noundef nonnull align 8 dereferenceable(16) %6)
  call void @_ZN17reduce_hypotheses13compute_marksEP3app(ptr noundef nonnull align 8 dereferenceable(160) %5, ptr noundef %7)
  %8 = load ptr, ptr %4, align 8, !tbaa !48
  %9 = call noundef zeroext i1 @_ZN17reduce_hypotheses12reduce_unitsER7obj_refI3app11ast_managerE(ptr noundef nonnull align 8 dereferenceable(160) %5, ptr noundef nonnull align 8 dereferenceable(16) %8)
  br i1 %9, label %14, label %10

10:                                               ; preds = %2
  %11 = load ptr, ptr %4, align 8, !tbaa !48
  %12 = call noundef ptr @_ZNK7obj_refI3app11ast_managerE3getEv(ptr noundef nonnull align 8 dereferenceable(16) %11)
  %13 = load ptr, ptr %4, align 8, !tbaa !48
  call void @_ZN17reduce_hypotheses6reduceEP3appR7obj_refIS0_11ast_managerE(ptr noundef nonnull align 8 dereferenceable(160) %5, ptr noundef %12, ptr noundef nonnull align 8 dereferenceable(16) %13)
  br label %14

14:                                               ; preds = %10, %2
  call void @_ZN17reduce_hypotheses5resetEv(ptr noundef nonnull align 8 dereferenceable(160) %5)
  ret void
}

; Function Attrs: mustprogress nounwind uwtable
define linkonce_odr hidden noundef nonnull align 8 dereferenceable(976) ptr @_ZNK7obj_refI3app11ast_managerE11get_managerEv(ptr noundef nonnull align 8 dereferenceable(16) %0) #5 comdat align 2 {
  %2 = alloca ptr, align 8
  store ptr %0, ptr %2, align 8, !tbaa !48
  %3 = load ptr, ptr %2, align 8
  %4 = getelementptr inbounds nuw %class.obj_ref, ptr %3, i32 0, i32 1
  %5 = load ptr, ptr %4, align 8, !tbaa !50
  ret ptr %5
}

; Function Attrs: mustprogress uwtable
define hidden void @_Z17reduce_hypothesesR7obj_refI3app11ast_managerE(ptr noundef nonnull align 8 dereferenceable(16) %0) #4 personality ptr @__gxx_personality_v0 {
  %2 = alloca ptr, align 8
  %3 = alloca ptr, align 8
  %4 = alloca %class.reduce_hypotheses, align 8
  %5 = alloca ptr, align 8
  %6 = alloca i32, align 4
  store ptr %0, ptr %2, align 8, !tbaa !48
  call void @llvm.lifetime.start.p0(i64 8, ptr %3) #3
  %7 = load ptr, ptr %2, align 8, !tbaa !48
  %8 = call noundef nonnull align 8 dereferenceable(976) ptr @_ZNK7obj_refI3app11ast_managerE11get_managerEv(ptr noundef nonnull align 8 dereferenceable(16) %7)
  store ptr %8, ptr %3, align 8, !tbaa !10
  call void @llvm.lifetime.start.p0(i64 160, ptr %4) #3
  %9 = load ptr, ptr %3, align 8, !tbaa !10
  call void @_ZN17reduce_hypothesesC2ER11ast_manager(ptr noundef nonnull align 8 dereferenceable(160) %4, ptr noundef nonnull align 8 dereferenceable(976) %9)
  %10 = load ptr, ptr %2, align 8, !tbaa !48
  invoke void @_ZN17reduce_hypothesesclER7obj_refI3app11ast_managerE(ptr noundef nonnull align 8 dereferenceable(160) %4, ptr noundef nonnull align 8 dereferenceable(16) %10)
          to label %11 unwind label %12

11:                                               ; preds = %1
  call void @_ZN17reduce_hypothesesD2Ev(ptr noundef nonnull align 8 dereferenceable(160) %4) #3
  call void @llvm.lifetime.end.p0(i64 160, ptr %4) #3
  call void @llvm.lifetime.end.p0(i64 8, ptr %3) #3
  ret void

12:                                               ; preds = %1
  %13 = landingpad { ptr, i32 }
          cleanup
  %14 = extractvalue { ptr, i32 } %13, 0
  store ptr %14, ptr %5, align 8
  %15 = extractvalue { ptr, i32 } %13, 1
  store i32 %15, ptr %6, align 4
  call void @_ZN17reduce_hypothesesD2Ev(ptr noundef nonnull align 8 dereferenceable(160) %4) #3
  call void @llvm.lifetime.end.p0(i64 160, ptr %4) #3
  call void @llvm.lifetime.end.p0(i64 8, ptr %3) #3
  br label %16

16:                                               ; preds = %12
  %17 = load ptr, ptr %5, align 8
  %18 = load i32, ptr %6, align 4
  %19 = insertvalue { ptr, i32 } poison, ptr %17, 0
  %20 = insertvalue { ptr, i32 } %19, i32 %18, 1
  resume { ptr, i32 } %20
}