; Function Attrs: mustprogress uwtable
define hidden void @_Z17reduce_hypothesesR7obj_refI3app11ast_managerE(ptr noundef nonnull align 8 dereferenceable(16) %0) local_unnamed_addr #3 personality ptr @__gxx_personality_v0 {
  %2 = alloca %class.reduce_hypotheses, align 8
  %3 = getelementptr inbounds nuw i8, ptr %0, i64 8
  %4 = load ptr, ptr %3, align 8, !tbaa !109
  call void @llvm.lifetime.start.p0(i64 160, ptr nonnull %2) #20
  call void @_ZN17reduce_hypothesesC2ER11ast_manager(ptr noundef nonnull align 8 dereferenceable(160) %2, ptr noundef nonnull align 8 dereferenceable(976) %4)
  %5 = load ptr, ptr %0, align 8, !tbaa !111
  invoke void @_ZN17reduce_hypotheses13compute_marksEP3app(ptr noundef nonnull align 8 dereferenceable(160) %2, ptr noundef %5)
          to label %.noexc unwind label %9

.noexc:                                           ; preds = %1
  %6 = invoke noundef zeroext i1 @_ZN17reduce_hypotheses12reduce_unitsER7obj_refI3app11ast_managerE(ptr noundef nonnull align 8 dereferenceable(160) %2, ptr noundef nonnull align 8 dereferenceable(16) %0)
          to label %.noexc4 unwind label %9

.noexc4:                                          ; preds = %.noexc
  br i1 %6, label %.noexc5, label %7

7:                                                ; preds = %.noexc4
  %8 = load ptr, ptr %0, align 8, !tbaa !111
  invoke void @_ZN17reduce_hypotheses6reduceEP3appR7obj_refIS0_11ast_managerE(ptr noundef nonnull align 8 dereferenceable(160) %2, ptr noundef %8, ptr noundef nonnull align 8 dereferenceable(16) %0)
          to label %.noexc5 unwind label %9

.noexc5:                                          ; preds = %7, %.noexc4
  invoke void @_ZN17reduce_hypotheses5resetEv(ptr noundef nonnull align 8 dereferenceable(160) %2)
          to label %_ZN17reduce_hypothesesclER7obj_refI3app11ast_managerE.exit unwind label %9

_ZN17reduce_hypothesesclER7obj_refI3app11ast_managerE.exit: ; preds = %.noexc5
  call void @_ZN17reduce_hypothesesD2Ev(ptr noundef nonnull align 8 dereferenceable(160) %2) #20
  call void @llvm.lifetime.end.p0(i64 160, ptr nonnull %2) #20
  ret void

9:                                                ; preds = %.noexc5, %7, %.noexc, %1
  %10 = landingpad { ptr, i32 }
          cleanup
  call void @_ZN17reduce_hypothesesD2Ev(ptr noundef nonnull align 8 dereferenceable(160) %2) #20
  call void @llvm.lifetime.end.p0(i64 160, ptr nonnull %2) #20
  resume { ptr, i32 } %10
}